; Function Attrs: mustprogress uwtable
define signext range(i8 0, 2) i8 @uhash_compareCaselessUnicodeString_77(ptr %0, ptr %1) local_unnamed_addr #0 {
  %3 = alloca i32, align 4
  %4 = icmp eq ptr %0, %1
  br i1 %4, label %_ZNK6icu_7713UnicodeString13doCaseCompareEiiRKS0_iij.exit, label %5

5:                                                ; preds = %2
  %6 = icmp eq ptr %0, null
  %7 = icmp eq ptr %1, null
  %or.cond = or i1 %6, %7
  br i1 %or.cond, label %_ZNK6icu_7713UnicodeString13doCaseCompareEiiRKS0_iij.exit, label %8

8:                                                ; preds = %5
  %9 = getelementptr inbounds nuw i8, ptr %0, i64 8
  %10 = load i16, ptr %9, align 8, !tbaa !3
  %11 = icmp slt i16 %10, 0
  %12 = ashr i16 %10, 5
  %13 = sext i16 %12 to i32
  %14 = getelementptr inbounds nuw i8, ptr %0, i64 12
  %15 = load i32, ptr %14, align 4
  %16 = select i1 %11, i32 %15, i32 %13
  %17 = getelementptr inbounds nuw i8, ptr %1, i64 8
  %18 = load i16, ptr %17, align 8, !tbaa !3
  %19 = icmp slt i16 %18, 0
  %20 = ashr i16 %18, 5
  %21 = sext i16 %20 to i32
  %22 = getelementptr inbounds nuw i8, ptr %1, i64 12
  %23 = load i32, ptr %22, align 4
  %24 = select i1 %19, i32 %23, i32 %21
  %25 = and i16 %18, 1
  %.not.i = icmp eq i16 %25, 0
  br i1 %.not.i, label %.sink.split.i.i, label %26

26:                                               ; preds = %8
  %27 = trunc i16 %10 to i8
  %28 = and i8 %27, 1
  br label %_ZNK6icu_7713UnicodeString13doCaseCompareEiiRKS0_iij.exit

.sink.split.i.i:                                  ; preds = %8
  %29 = and i16 %10, 1
  %.not.i8.i = icmp eq i16 %29, 0
  br i1 %.not.i8.i, label %.sink.split.i.i.i, label %_ZNK6icu_7713UnicodeString13doCaseCompareEiiRKS0_iij.exit

.sink.split.i.i.i:                                ; preds = %.sink.split.i.i
  %30 = and i16 %18, 2
  %.not.i.i = icmp eq i16 %30, 0
  %31 = getelementptr inbounds nuw i8, ptr %1, i64 24
  %32 = load ptr, ptr %31, align 8
  %33 = getelementptr inbounds nuw i8, ptr %1, i64 10
  %34 = select i1 %.not.i.i, ptr %32, ptr %33
  %35 = icmp slt i32 %24, 0
  %spec.select14.i = tail call i32 @llvm.smin.i32(i32 %24, i32 0)
  %36 = sub nsw i32 %24, %spec.select14.i
  %spec.select15.i = tail call i32 @llvm.smin.i32(i32 %24, i32 %36)
  %spec.select38.i.i = tail call i32 @llvm.smin.i32(i32 %16, i32 0)
  %.0.i.i = tail call i32 @llvm.smax.i32(i32 %16, i32 0)
  %37 = icmp eq ptr %34, null
  %38 = or i1 %35, %37
  %spec.select32.i.i = select i1 %38, i32 0, i32 %spec.select15.i
  %39 = and i16 %10, 2
  %.not.i.i.i = icmp eq i16 %39, 0
  %40 = getelementptr inbounds nuw i8, ptr %0, i64 10
  %41 = getelementptr inbounds nuw i8, ptr %0, i64 24
  %42 = load ptr, ptr %41, align 8
  %43 = select i1 %.not.i.i.i, ptr %42, ptr %40
  %44 = sext i32 %spec.select38.i.i to i64
  %45 = getelementptr inbounds i16, ptr %43, i64 %44
  %46 = sext i32 %spec.select14.i to i64
  %47 = select i1 %37, i64 0, i64 %46
  %48 = getelementptr inbounds i16, ptr %34, i64 %47
  %.not29.i.i = icmp eq ptr %45, %48
  br i1 %.not29.i.i, label %51, label %49

49:                                               ; preds = %.sink.split.i.i.i
  call void @llvm.lifetime.start.p0(i64 4, ptr nonnull %3) #6
  store i32 0, ptr %3, align 4, !tbaa !6
  %50 = call i32 @u_strcmpFold_77(ptr noundef %45, i32 noundef %.0.i.i, ptr noundef %48, i32 noundef %spec.select32.i.i, i32 noundef 65536, ptr noundef nonnull %3)
  %.not31.i.i = icmp eq i32 %50, 0
  call void @llvm.lifetime.end.p0(i64 4, ptr nonnull %3) #6
  br i1 %.not31.i.i, label %57, label %_ZNK6icu_7713UnicodeString13doCaseCompareEiiRKS0_iij.exit

51:                                               ; preds = %.sink.split.i.i.i
  %52 = icmp slt i32 %spec.select32.i.i, 0
  br i1 %52, label %53, label %56

53:                                               ; preds = %51
  %54 = getelementptr inbounds i16, ptr %48, i64 %47
  %55 = tail call i32 @u_strlen_77(ptr noundef %54)
  br label %56

56:                                               ; preds = %53, %51
  %.123.i.i = phi i32 [ %55, %53 ], [ %spec.select32.i.i, %51 ]
  %.not30.i.i = icmp eq i32 %.0.i.i, %.123.i.i
  br i1 %.not30.i.i, label %57, label %_ZNK6icu_7713UnicodeString13doCaseCompareEiiRKS0_iij.exit

57:                                               ; preds = %56, %49
  br label %_ZNK6icu_7713UnicodeString13doCaseCompareEiiRKS0_iij.exit

_ZNK6icu_7713UnicodeString13doCaseCompareEiiRKS0_iij.exit: ; preds = %57, %49, %.sink.split.i.i, %26, %56, %5, %2
  %.0 = phi i8 [ 1, %2 ], [ 0, %5 ], [ %28, %26 ], [ 0, %.sink.split.i.i ], [ 1, %57 ], [ 0, %49 ], [ 0, %56 ]
  ret i8 %.0
}